target datalayout = "e-m:e-p270:32:32-p271:32:32-p272:64:64-i64:64-i128:128-f80:128-n8:16:32:64-S128"
target triple = "x86_64-pc-linux-gnu"

%class.RSCoder16 = type { ptr, ptr, i8, i32, i32, i32, ptr, ptr, ptr, i64 }

; Function Attrs: mustprogress nounwind uwtable
define linkonce_odr noundef i32 @_ZN9RSCoder165gfInvEj(ptr noundef nonnull align 8 dereferenceable(64) %0, i32 noundef %1) #1 comdat align 2 {
  %3 = alloca ptr, align 8
  %4 = alloca i32, align 4
  store ptr %0, ptr %3, align 8
  store i32 %1, ptr %4, align 4
  %5 = load ptr, ptr %3, align 8
  %6 = load i32, ptr %4, align 4
  %7 = icmp eq i32 %6, 0
  br i1 %7, label %8, label %9

8:                                                ; preds = %2
  br label %22

9:                                                ; preds = %2
  %10 = getelementptr inbounds %class.RSCoder16, ptr %5, i32 0, i32 0
  %11 = load ptr, ptr %10, align 8
  %12 = getelementptr inbounds %class.RSCoder16, ptr %5, i32 0, i32 1
  %13 = load ptr, ptr %12, align 8
  %14 = load i32, ptr %4, align 4
  %15 = zext i32 %14 to i64
  %16 = getelementptr inbounds i32, ptr %13, i64 %15
  %17 = load i32, ptr %16, align 4
  %18 = sub i32 65535, %17
  %19 = zext i32 %18 to i64
  %20 = getelementptr inbounds i32, ptr %11, i64 %19
  %21 = load i32, ptr %20, align 4
  br label %22

22:                                               ; preds = %9, %8
  %23 = phi i32 [ 0, %8 ], [ %21, %9 ]
  ret i32 %23
}

; Function Attrs: mustprogress nounwind uwtable
define linkonce_odr noundef i32 @_ZN9RSCoder165gfAddEjj(ptr noundef nonnull align 8 dereferenceable(64) %0, i32 noundef %1, i32 noundef %2) #1 comdat align 2 {
  %4 = alloca ptr, align 8
  %5 = alloca i32, align 4
  %6 = alloca i32, align 4
  store ptr %0, ptr %4, align 8
  store i32 %1, ptr %5, align 4
  store i32 %2, ptr %6, align 4
  %7 = load i32, ptr %5, align 4
  %8 = load i32, ptr %6, align 4
  %9 = xor i32 %7, %8
  ret i32 %9
}

; Function Attrs: mustprogress uwtable
define void @_ZN9RSCoder1617MakeDecoderMatrixEv(ptr noundef nonnull align 8 dereferenceable(64) %0) #0 align 2 {
  %2 = alloca ptr, align 8
  %3 = alloca i32, align 4
  %4 = alloca i32, align 4
  %5 = alloca i32, align 4
  %6 = alloca i32, align 4
  store ptr %0, ptr %2, align 8
  %7 = load ptr, ptr %2, align 8
  store i32 0, ptr %3, align 4
  %8 = getelementptr inbounds %class.RSCoder16, ptr %7, i32 0, i32 3
  %9 = load i32, ptr %8, align 4
  store i32 %9, ptr %4, align 4
  store i32 0, ptr %5, align 4
  br label %10

10:                                               ; preds = %66, %1
  %11 = load i32, ptr %3, align 4
  %12 = getelementptr inbounds %class.RSCoder16, ptr %7, i32 0, i32 3
  %13 = load i32, ptr %12, align 4
  %14 = icmp ult i32 %11, %13
  br i1 %14, label %15, label %69

15:                                               ; preds = %10
  %16 = getelementptr inbounds %class.RSCoder16, ptr %7, i32 0, i32 6
  %17 = load ptr, ptr %16, align 8
  %18 = load i32, ptr %3, align 4
  %19 = zext i32 %18 to i64
  %20 = getelementptr inbounds i8, ptr %17, i64 %19
  %21 = load i8, ptr %20, align 1
  %22 = trunc i8 %21 to i1
  br i1 %22, label %65, label %23

23:                                               ; preds = %15
  br label %24

24:                                               ; preds = %33, %23
  %25 = getelementptr inbounds %class.RSCoder16, ptr %7, i32 0, i32 6
  %26 = load ptr, ptr %25, align 8
  %27 = load i32, ptr %4, align 4
  %28 = zext i32 %27 to i64
  %29 = getelementptr inbounds i8, ptr %26, i64 %28
  %30 = load i8, ptr %29, align 1
  %31 = trunc i8 %30 to i1
  %32 = xor i1 %31, true
  br i1 %32, label %33, label %36

33:                                               ; preds = %24
  %34 = load i32, ptr %4, align 4
  %35 = add i32 %34, 1
  store i32 %35, ptr %4, align 4
  br label %24, !llvm.loop !10

36:                                               ; preds = %24
  store i32 0, ptr %6, align 4
  br label %37

37:                                               ; preds = %57, %36
  %38 = load i32, ptr %6, align 4
  %39 = getelementptr inbounds %class.RSCoder16, ptr %7, i32 0, i32 3
  %40 = load i32, ptr %39, align 4
  %41 = icmp ult i32 %38, %40
  br i1 %41, label %42, label %60

42:                                               ; preds = %37
  %43 = load i32, ptr %4, align 4
  %44 = load i32, ptr %6, align 4
  %45 = call noundef i32 @_ZN9RSCoder165gfAddEjj(ptr noundef nonnull align 8 dereferenceable(64) %7, i32 noundef %43, i32 noundef %44)
  %46 = call noundef i32 @_ZN9RSCoder165gfInvEj(ptr noundef nonnull align 8 dereferenceable(64) %7, i32 noundef %45)
  %47 = getelementptr inbounds %class.RSCoder16, ptr %7, i32 0, i32 7
  %48 = load ptr, ptr %47, align 8
  %49 = load i32, ptr %5, align 4
  %50 = getelementptr inbounds %class.RSCoder16, ptr %7, i32 0, i32 3
  %51 = load i32, ptr %50, align 4
  %52 = mul i32 %49, %51
  %53 = load i32, ptr %6, align 4
  %54 = add i32 %52, %53
  %55 = zext i32 %54 to i64
  %56 = getelementptr inbounds i32, ptr %48, i64 %55
  store i32 %46, ptr %56, align 4
  br label %57

57:                                               ; preds = %42
  %58 = load i32, ptr %6, align 4
  %59 = add i32 %58, 1
  store i32 %59, ptr %6, align 4
  br label %37, !llvm.loop !11

60:                                               ; preds = %37
  %61 = load i32, ptr %5, align 4
  %62 = add i32 %61, 1
  store i32 %62, ptr %5, align 4
  %63 = load i32, ptr %4, align 4
  %64 = add i32 %63, 1
  store i32 %64, ptr %4, align 4
  br label %65

65:                                               ; preds = %60, %15
  br label %66

66:                                               ; preds = %65
  %67 = load i32, ptr %3, align 4
  %68 = add i32 %67, 1
  store i32 %68, ptr %3, align 4
  br label %10, !llvm.loop !12

69:                                               ; preds = %10
  ret void
}