; Function Attrs: mustprogress nofree norecurse nosync nounwind memory(readwrite, inaccessiblemem: none) uwtable
define void @_ZN9RSCoder1617MakeDecoderMatrixEv(ptr nocapture noundef nonnull readonly align 8 dereferenceable(64) %0) local_unnamed_addr #4 align 2 {
  %2 = getelementptr inbounds i8, ptr %0, i64 20
  %3 = load i32, ptr %2, align 4
  %.not = icmp eq i32 %3, 0
  br i1 %.not, label %._crit_edge24, label %.lr.ph23

.lr.ph23:                                         ; preds = %1
  %4 = getelementptr inbounds i8, ptr %0, i64 32
  %5 = getelementptr inbounds i8, ptr %0, i64 8
  %6 = getelementptr inbounds i8, ptr %0, i64 40
  br label %7

7:                                                ; preds = %.lr.ph23, %42
  %8 = phi i32 [ %3, %.lr.ph23 ], [ %43, %42 ]
  %indvars.iv = phi i64 [ 0, %.lr.ph23 ], [ %indvars.iv.next, %42 ]
  %.01321 = phi i32 [ 0, %.lr.ph23 ], [ %.1, %42 ]
  %.01420 = phi i32 [ %3, %.lr.ph23 ], [ %.2, %42 ]
  %9 = load ptr, ptr %4, align 8
  %10 = getelementptr inbounds i8, ptr %9, i64 %indvars.iv
  %11 = load i8, ptr %10, align 1
  %12 = trunc i8 %11 to i1
  br i1 %12, label %42, label %.preheader17

.preheader17:                                     ; preds = %7, %.preheader17
  %.115 = phi i32 [ %17, %.preheader17 ], [ %.01420, %7 ]
  %13 = zext i32 %.115 to i64
  %14 = getelementptr inbounds i8, ptr %9, i64 %13
  %15 = load i8, ptr %14, align 1
  %16 = trunc i8 %15 to i1
  %17 = add i32 %.115, 1
  br i1 %16, label %.preheader, label %.preheader17, !llvm.loop !10

.preheader:                                       ; preds = %.preheader17
  %.not25 = icmp eq i32 %8, 0
  br i1 %.not25, label %._crit_edge, label %.lr.ph

.lr.ph:                                           ; preds = %.preheader, %_ZN9RSCoder165gfInvEj.exit
  %18 = phi i32 [ %38, %_ZN9RSCoder165gfInvEj.exit ], [ %8, %.preheader ]
  %.018 = phi i32 [ %37, %_ZN9RSCoder165gfInvEj.exit ], [ 0, %.preheader ]
  %19 = xor i32 %.018, %.115
  %20 = icmp eq i32 %19, 0
  br i1 %20, label %_ZN9RSCoder165gfInvEj.exit, label %21

21:                                               ; preds = %.lr.ph
  %22 = load ptr, ptr %0, align 8
  %23 = load ptr, ptr %5, align 8
  %24 = zext i32 %19 to i64
  %25 = getelementptr inbounds i32, ptr %23, i64 %24
  %26 = load i32, ptr %25, align 4
  %27 = sub i32 65535, %26
  %28 = zext i32 %27 to i64
  %29 = getelementptr inbounds i32, ptr %22, i64 %28
  %30 = load i32, ptr %29, align 4
  br label %_ZN9RSCoder165gfInvEj.exit

_ZN9RSCoder165gfInvEj.exit:                       ; preds = %.lr.ph, %21
  %31 = phi i32 [ %30, %21 ], [ 0, %.lr.ph ]
  %32 = load ptr, ptr %6, align 8
  %33 = mul i32 %18, %.01321
  %34 = add i32 %33, %.018
  %35 = zext i32 %34 to i64
  %36 = getelementptr inbounds i32, ptr %32, i64 %35
  store i32 %31, ptr %36, align 4
  %37 = add nuw i32 %.018, 1
  %38 = load i32, ptr %2, align 4
  %39 = icmp ult i32 %37, %38
  br i1 %39, label %.lr.ph, label %._crit_edge, !llvm.loop !11

._crit_edge:                                      ; preds = %_ZN9RSCoder165gfInvEj.exit, %.preheader
  %40 = phi i32 [ 0, %.preheader ], [ %38, %_ZN9RSCoder165gfInvEj.exit ]
  %41 = add i32 %.01321, 1
  br label %42

42:                                               ; preds = %7, %._crit_edge
  %43 = phi i32 [ %8, %7 ], [ %40, %._crit_edge ]
  %.2 = phi i32 [ %.01420, %7 ], [ %17, %._crit_edge ]
  %.1 = phi i32 [ %.01321, %7 ], [ %41, %._crit_edge ]
  %indvars.iv.next = add nuw nsw i64 %indvars.iv, 1
  %44 = zext i32 %43 to i64
  %45 = icmp ult i64 %indvars.iv.next, %44
  br i1 %45, label %7, label %._crit_edge24, !llvm.loop !12

._crit_edge24:                                    ; preds = %42, %1
  ret void
}